target datalayout = "e-m:e-p270:32:32-p271:32:32-p272:64:64-i64:64-i128:128-f80:128-n8:16:32:64-S128"
target triple = "x86_64-pc-linux-gnu"

%struct.xdiff_emit_state = type { ptr, ptr, ptr, %struct.strbuf }
%struct.strbuf = type { i64, i64, ptr }
%struct.s_mmbuffer = type { ptr, i64 }

@.str.16 = private unnamed_addr constant [11 x i8] c"./strbuf.h\00", align 1
@.str.17 = private unnamed_addr constant [30 x i8] c"strbuf_setlen() beyond buffer\00", align 1
@strbuf_slopbuf = external global [0 x i8], align 1

; Function Attrs: inlinehint nounwind uwtable
define internal void @strbuf_setlen(ptr noundef %0, i64 noundef %1) #6 {
  %3 = alloca ptr, align 8
  %4 = alloca i64, align 8
  store ptr %0, ptr %3, align 8, !tbaa !85
  store i64 %1, ptr %4, align 8, !tbaa !18
  %5 = load i64, ptr %4, align 8, !tbaa !18
  %6 = load ptr, ptr %3, align 8, !tbaa !85
  %7 = getelementptr inbounds nuw %struct.strbuf, ptr %6, i32 0, i32 0
  %8 = load i64, ptr %7, align 8, !tbaa !87
  %9 = icmp ne i64 %8, 0
  br i1 %9, label %10, label %15

10:                                               ; preds = %2
  %11 = load ptr, ptr %3, align 8, !tbaa !85
  %12 = getelementptr inbounds nuw %struct.strbuf, ptr %11, i32 0, i32 0
  %13 = load i64, ptr %12, align 8, !tbaa !87
  %14 = sub i64 %13, 1
  br label %16

15:                                               ; preds = %2
  br label %16

16:                                               ; preds = %15, %10
  %17 = phi i64 [ %14, %10 ], [ 0, %15 ]
  %18 = icmp ugt i64 %5, %17
  br i1 %18, label %19, label %20

19:                                               ; preds = %16
  call void (ptr, i32, ptr, ...) @BUG_fl(ptr noundef @.str.16, i32 noundef 167, ptr noundef @.str.17) #11
  unreachable

20:                                               ; preds = %16
  %21 = load i64, ptr %4, align 8, !tbaa !18
  %22 = load ptr, ptr %3, align 8, !tbaa !85
  %23 = getelementptr inbounds nuw %struct.strbuf, ptr %22, i32 0, i32 1
  store i64 %21, ptr %23, align 8, !tbaa !88
  %24 = load ptr, ptr %3, align 8, !tbaa !85
  %25 = getelementptr inbounds nuw %struct.strbuf, ptr %24, i32 0, i32 2
  %26 = load ptr, ptr %25, align 8, !tbaa !89
  %27 = icmp ne ptr %26, @strbuf_slopbuf
  br i1 %27, label %28, label %34

28:                                               ; preds = %20
  %29 = load ptr, ptr %3, align 8, !tbaa !85
  %30 = getelementptr inbounds nuw %struct.strbuf, ptr %29, i32 0, i32 2
  %31 = load ptr, ptr %30, align 8, !tbaa !89
  %32 = load i64, ptr %4, align 8, !tbaa !18
  %33 = getelementptr inbounds nuw i8, ptr %31, i64 %32
  store i8 0, ptr %33, align 1, !tbaa !30
  br label %35

34:                                               ; preds = %20
  br label %35

35:                                               ; preds = %34, %28
  ret void
}

; Function Attrs: nounwind uwtable
define internal i32 @consume_one(ptr noundef %0, ptr noundef %1, i64 noundef %2) #0 {
  %4 = alloca i32, align 4
  %5 = alloca ptr, align 8
  %6 = alloca ptr, align 8
  %7 = alloca i64, align 8
  %8 = alloca ptr, align 8
  %9 = alloca ptr, align 8
  %10 = alloca i64, align 8
  %11 = alloca i32, align 4
  %12 = alloca i32, align 4
  store ptr %0, ptr %5, align 8, !tbaa !32
  store ptr %1, ptr %6, align 8, !tbaa !16
  store i64 %2, ptr %7, align 8, !tbaa !18
  call void @llvm.lifetime.start.p0(i64 8, ptr %8) #9
  %13 = load ptr, ptr %5, align 8, !tbaa !32
  store ptr %13, ptr %8, align 8, !tbaa !42
  call void @llvm.lifetime.start.p0(i64 8, ptr %9) #9
  br label %14

14:                                               ; preds = %56, %3
  %15 = load i64, ptr %7, align 8, !tbaa !18
  %16 = icmp ne i64 %15, 0
  br i1 %16, label %17, label %57

17:                                               ; preds = %14
  call void @llvm.lifetime.start.p0(i64 8, ptr %10) #9
  call void @llvm.lifetime.start.p0(i64 4, ptr %11) #9
  %18 = load ptr, ptr %6, align 8, !tbaa !16
  %19 = load i64, ptr %7, align 8, !tbaa !18
  %20 = call ptr @memchr(ptr noundef %18, i32 noundef 10, i64 noundef %19) #10
  store ptr %20, ptr %9, align 8, !tbaa !16
  %21 = load ptr, ptr %9, align 8, !tbaa !16
  %22 = icmp eq ptr %21, null
  br i1 %22, label %23, label %25

23:                                               ; preds = %17
  %24 = load i64, ptr %7, align 8, !tbaa !18
  br label %32

25:                                               ; preds = %17
  %26 = load ptr, ptr %9, align 8, !tbaa !16
  %27 = load ptr, ptr %6, align 8, !tbaa !16
  %28 = ptrtoint ptr %26 to i64
  %29 = ptrtoint ptr %27 to i64
  %30 = sub i64 %28, %29
  %31 = add nsw i64 %30, 1
  br label %32

32:                                               ; preds = %25, %23
  %33 = phi i64 [ %24, %23 ], [ %31, %25 ]
  store i64 %33, ptr %10, align 8, !tbaa !18
  %34 = load ptr, ptr %8, align 8, !tbaa !42
  %35 = getelementptr inbounds nuw %struct.xdiff_emit_state, ptr %34, i32 0, i32 1
  %36 = load ptr, ptr %35, align 8, !tbaa !36
  %37 = load ptr, ptr %8, align 8, !tbaa !42
  %38 = getelementptr inbounds nuw %struct.xdiff_emit_state, ptr %37, i32 0, i32 2
  %39 = load ptr, ptr %38, align 8, !tbaa !37
  %40 = load ptr, ptr %6, align 8, !tbaa !16
  %41 = load i64, ptr %10, align 8, !tbaa !18
  %42 = call i32 %36(ptr noundef %39, ptr noundef %40, i64 noundef %41)
  store i32 %42, ptr %11, align 4, !tbaa !25
  %43 = load i32, ptr %11, align 4, !tbaa !25
  %44 = icmp ne i32 %43, 0
  br i1 %44, label %45, label %47

45:                                               ; preds = %32
  %46 = load i32, ptr %11, align 4, !tbaa !25
  store i32 %46, ptr %4, align 4
  store i32 1, ptr %12, align 4
  br label %54

47:                                               ; preds = %32
  %48 = load i64, ptr %10, align 8, !tbaa !18
  %49 = load i64, ptr %7, align 8, !tbaa !18
  %50 = sub i64 %49, %48
  store i64 %50, ptr %7, align 8, !tbaa !18
  %51 = load i64, ptr %10, align 8, !tbaa !18
  %52 = load ptr, ptr %6, align 8, !tbaa !16
  %53 = getelementptr inbounds nuw i8, ptr %52, i64 %51
  store ptr %53, ptr %6, align 8, !tbaa !16
  store i32 0, ptr %12, align 4
  br label %54

54:                                               ; preds = %47, %45
  call void @llvm.lifetime.end.p0(i64 4, ptr %11) #9
  call void @llvm.lifetime.end.p0(i64 8, ptr %10) #9
  %55 = load i32, ptr %12, align 4
  switch i32 %55, label %58 [
    i32 0, label %56
  ]

56:                                               ; preds = %54
  br label %14, !llvm.loop !84

57:                                               ; preds = %14
  store i32 0, ptr %4, align 4
  store i32 1, ptr %12, align 4
  br label %58

58:                                               ; preds = %57, %54
  call void @llvm.lifetime.end.p0(i64 8, ptr %9) #9
  call void @llvm.lifetime.end.p0(i64 8, ptr %8) #9
  %59 = load i32, ptr %4, align 4
  ret i32 %59
}

; Function Attrs: nounwind uwtable
define internal i32 @xdiff_outf(ptr noundef %0, ptr noundef %1, i32 noundef %2) #0 {
  %4 = alloca i32, align 4
  %5 = alloca ptr, align 8
  %6 = alloca ptr, align 8
  %7 = alloca i32, align 4
  %8 = alloca ptr, align 8
  %9 = alloca i32, align 4
  %10 = alloca i32, align 4
  %11 = alloca i32, align 4
  store ptr %0, ptr %5, align 8, !tbaa !32
  store ptr %1, ptr %6, align 8, !tbaa !45
  store i32 %2, ptr %7, align 4, !tbaa !25
  call void @llvm.lifetime.start.p0(i64 8, ptr %8) #9
  %12 = load ptr, ptr %5, align 8, !tbaa !32
  store ptr %12, ptr %8, align 8, !tbaa !42
  call void @llvm.lifetime.start.p0(i64 4, ptr %9) #9
  call void @llvm.lifetime.start.p0(i64 4, ptr %10) #9
  store i32 0, ptr %10, align 4, !tbaa !25
  %13 = load ptr, ptr %8, align 8, !tbaa !42
  %14 = getelementptr inbounds nuw %struct.xdiff_emit_state, ptr %13, i32 0, i32 1
  %15 = load ptr, ptr %14, align 8, !tbaa !36
  %16 = icmp ne ptr %15, null
  br i1 %16, label %18, label %17

17:                                               ; preds = %3
  store i32 0, ptr %4, align 4
  store i32 1, ptr %11, align 4
  br label %139

18:                                               ; preds = %3
  store i32 0, ptr %9, align 4, !tbaa !25
  br label %19

19:                                               ; preds = %108, %18
  %20 = load i32, ptr %9, align 4, !tbaa !25
  %21 = load i32, ptr %7, align 4, !tbaa !25
  %22 = icmp slt i32 %20, %21
  br i1 %22, label %23, label %111

23:                                               ; preds = %19
  %24 = load i32, ptr %10, align 4, !tbaa !25
  %25 = icmp ne i32 %24, 0
  br i1 %25, label %26, label %27

26:                                               ; preds = %23
  store i32 1, ptr %4, align 4
  store i32 1, ptr %11, align 4
  br label %139

27:                                               ; preds = %23
  %28 = load ptr, ptr %6, align 8, !tbaa !45
  %29 = load i32, ptr %9, align 4, !tbaa !25
  %30 = sext i32 %29 to i64
  %31 = getelementptr inbounds %struct.s_mmbuffer, ptr %28, i64 %30
  %32 = getelementptr inbounds nuw %struct.s_mmbuffer, ptr %31, i32 0, i32 0
  %33 = load ptr, ptr %32, align 8, !tbaa !47
  %34 = load ptr, ptr %6, align 8, !tbaa !45
  %35 = load i32, ptr %9, align 4, !tbaa !25
  %36 = sext i32 %35 to i64
  %37 = getelementptr inbounds %struct.s_mmbuffer, ptr %34, i64 %36
  %38 = getelementptr inbounds nuw %struct.s_mmbuffer, ptr %37, i32 0, i32 1
  %39 = load i64, ptr %38, align 8, !tbaa !49
  %40 = sub nsw i64 %39, 1
  %41 = getelementptr inbounds i8, ptr %33, i64 %40
  %42 = load i8, ptr %41, align 1, !tbaa !30
  %43 = sext i8 %42 to i32
  %44 = icmp ne i32 %43, 10
  br i1 %44, label %45, label %60

45:                                               ; preds = %27
  %46 = load ptr, ptr %8, align 8, !tbaa !42
  %47 = getelementptr inbounds nuw %struct.xdiff_emit_state, ptr %46, i32 0, i32 3
  %48 = load ptr, ptr %6, align 8, !tbaa !45
  %49 = load i32, ptr %9, align 4, !tbaa !25
  %50 = sext i32 %49 to i64
  %51 = getelementptr inbounds %struct.s_mmbuffer, ptr %48, i64 %50
  %52 = getelementptr inbounds nuw %struct.s_mmbuffer, ptr %51, i32 0, i32 0
  %53 = load ptr, ptr %52, align 8, !tbaa !47
  %54 = load ptr, ptr %6, align 8, !tbaa !45
  %55 = load i32, ptr %9, align 4, !tbaa !25
  %56 = sext i32 %55 to i64
  %57 = getelementptr inbounds %struct.s_mmbuffer, ptr %54, i64 %56
  %58 = getelementptr inbounds nuw %struct.s_mmbuffer, ptr %57, i32 0, i32 1
  %59 = load i64, ptr %58, align 8, !tbaa !49
  call void @strbuf_add(ptr noundef %47, ptr noundef %53, i64 noundef %59)
  br label %108

60:                                               ; preds = %27
  %61 = load ptr, ptr %8, align 8, !tbaa !42
  %62 = getelementptr inbounds nuw %struct.xdiff_emit_state, ptr %61, i32 0, i32 3
  %63 = getelementptr inbounds nuw %struct.strbuf, ptr %62, i32 0, i32 1
  %64 = load i64, ptr %63, align 8, !tbaa !44
  %65 = icmp ne i64 %64, 0
  br i1 %65, label %81, label %66

66:                                               ; preds = %60
  %67 = load ptr, ptr %8, align 8, !tbaa !42
  %68 = load ptr, ptr %6, align 8, !tbaa !45
  %69 = load i32, ptr %9, align 4, !tbaa !25
  %70 = sext i32 %69 to i64
  %71 = getelementptr inbounds %struct.s_mmbuffer, ptr %68, i64 %70
  %72 = getelementptr inbounds nuw %struct.s_mmbuffer, ptr %71, i32 0, i32 0
  %73 = load ptr, ptr %72, align 8, !tbaa !47
  %74 = load ptr, ptr %6, align 8, !tbaa !45
  %75 = load i32, ptr %9, align 4, !tbaa !25
  %76 = sext i32 %75 to i64
  %77 = getelementptr inbounds %struct.s_mmbuffer, ptr %74, i64 %76
  %78 = getelementptr inbounds nuw %struct.s_mmbuffer, ptr %77, i32 0, i32 1
  %79 = load i64, ptr %78, align 8, !tbaa !49
  %80 = call i32 @consume_one(ptr noundef %67, ptr noundef %73, i64 noundef %79)
  store i32 %80, ptr %10, align 4, !tbaa !25
  br label %108

81:                                               ; preds = %60
  %82 = load ptr, ptr %8, align 8, !tbaa !42
  %83 = getelementptr inbounds nuw %struct.xdiff_emit_state, ptr %82, i32 0, i32 3
  %84 = load ptr, ptr %6, align 8, !tbaa !45
  %85 = load i32, ptr %9, align 4, !tbaa !25
  %86 = sext i32 %85 to i64
  %87 = getelementptr inbounds %struct.s_mmbuffer, ptr %84, i64 %86
  %88 = getelementptr inbounds nuw %struct.s_mmbuffer, ptr %87, i32 0, i32 0
  %89 = load ptr, ptr %88, align 8, !tbaa !47
  %90 = load ptr, ptr %6, align 8, !tbaa !45
  %91 = load i32, ptr %9, align 4, !tbaa !25
  %92 = sext i32 %91 to i64
  %93 = getelementptr inbounds %struct.s_mmbuffer, ptr %90, i64 %92
  %94 = getelementptr inbounds nuw %struct.s_mmbuffer, ptr %93, i32 0, i32 1
  %95 = load i64, ptr %94, align 8, !tbaa !49
  call void @strbuf_add(ptr noundef %83, ptr noundef %89, i64 noundef %95)
  %96 = load ptr, ptr %8, align 8, !tbaa !42
  %97 = load ptr, ptr %8, align 8, !tbaa !42
  %98 = getelementptr inbounds nuw %struct.xdiff_emit_state, ptr %97, i32 0, i32 3
  %99 = getelementptr inbounds nuw %struct.strbuf, ptr %98, i32 0, i32 2
  %100 = load ptr, ptr %99, align 8, !tbaa !50
  %101 = load ptr, ptr %8, align 8, !tbaa !42
  %102 = getelementptr inbounds nuw %struct.xdiff_emit_state, ptr %101, i32 0, i32 3
  %103 = getelementptr inbounds nuw %struct.strbuf, ptr %102, i32 0, i32 1
  %104 = load i64, ptr %103, align 8, !tbaa !44
  %105 = call i32 @consume_one(ptr noundef %96, ptr noundef %100, i64 noundef %104)
  store i32 %105, ptr %10, align 4, !tbaa !25
  %106 = load ptr, ptr %8, align 8, !tbaa !42
  %107 = getelementptr inbounds nuw %struct.xdiff_emit_state, ptr %106, i32 0, i32 3
  call void @strbuf_setlen(ptr noundef %107, i64 noundef 0)
  br label %108

108:                                              ; preds = %81, %66, %45
  %109 = load i32, ptr %9, align 4, !tbaa !25
  %110 = add nsw i32 %109, 1
  store i32 %110, ptr %9, align 4, !tbaa !25
  br label %19, !llvm.loop !51

111:                                              ; preds = %19
  %112 = load i32, ptr %10, align 4, !tbaa !25
  %113 = icmp ne i32 %112, 0
  br i1 %113, label %114, label %115

114:                                              ; preds = %111
  store i32 -1, ptr %4, align 4
  store i32 1, ptr %11, align 4
  br label %139

115:                                              ; preds = %111
  %116 = load ptr, ptr %8, align 8, !tbaa !42
  %117 = getelementptr inbounds nuw %struct.xdiff_emit_state, ptr %116, i32 0, i32 3
  %118 = getelementptr inbounds nuw %struct.strbuf, ptr %117, i32 0, i32 1
  %119 = load i64, ptr %118, align 8, !tbaa !44
  %120 = icmp ne i64 %119, 0
  br i1 %120, label %121, label %134

121:                                              ; preds = %115
  %122 = load ptr, ptr %8, align 8, !tbaa !42
  %123 = load ptr, ptr %8, align 8, !tbaa !42
  %124 = getelementptr inbounds nuw %struct.xdiff_emit_state, ptr %123, i32 0, i32 3
  %125 = getelementptr inbounds nuw %struct.strbuf, ptr %124, i32 0, i32 2
  %126 = load ptr, ptr %125, align 8, !tbaa !50
  %127 = load ptr, ptr %8, align 8, !tbaa !42
  %128 = getelementptr inbounds nuw %struct.xdiff_emit_state, ptr %127, i32 0, i32 3
  %129 = getelementptr inbounds nuw %struct.strbuf, ptr %128, i32 0, i32 1
  %130 = load i64, ptr %129, align 8, !tbaa !44
  %131 = call i32 @consume_one(ptr noundef %122, ptr noundef %126, i64 noundef %130)
  store i32 %131, ptr %10, align 4, !tbaa !25
  %132 = load ptr, ptr %8, align 8, !tbaa !42
  %133 = getelementptr inbounds nuw %struct.xdiff_emit_state, ptr %132, i32 0, i32 3
  call void @strbuf_setlen(ptr noundef %133, i64 noundef 0)
  br label %134

134:                                              ; preds = %121, %115
  %135 = load i32, ptr %10, align 4, !tbaa !25
  %136 = icmp ne i32 %135, 0
  br i1 %136, label %137, label %138

137:                                              ; preds = %134
  store i32 -1, ptr %4, align 4
  store i32 1, ptr %11, align 4
  br label %139

138:                                              ; preds = %134
  store i32 0, ptr %4, align 4
  store i32 1, ptr %11, align 4
  br label %139

139:                                              ; preds = %138, %137, %114, %26, %17
  call void @llvm.lifetime.end.p0(i64 4, ptr %10) #9
  call void @llvm.lifetime.end.p0(i64 4, ptr %9) #9
  call void @llvm.lifetime.end.p0(i64 8, ptr %8) #9
  %140 = load i32, ptr %4, align 4
  ret i32 %140
}