; Function Attrs: nounwind uwtable
define internal range(i32 -1, 2) i32 @xdiff_outf(ptr noundef %0, ptr noundef readonly captures(none) %1, i32 noundef %2) #0 {
  %4 = getelementptr inbounds nuw i8, ptr %0, i64 8
  %5 = load ptr, ptr %4, align 8, !tbaa !25
  %.not = icmp eq ptr %5, null
  br i1 %.not, label %.loopexit, label %.preheader

.preheader:                                       ; preds = %3
  %6 = icmp sgt i32 %2, 0
  br i1 %6, label %.lr.ph, label %._crit_edge.thread

.lr.ph:                                           ; preds = %.preheader
  %7 = getelementptr inbounds nuw i8, ptr %0, i64 24
  %8 = getelementptr inbounds nuw i8, ptr %0, i64 32
  %9 = getelementptr inbounds nuw i8, ptr %0, i64 40
  %10 = getelementptr inbounds nuw i8, ptr %0, i64 16
  %wide.trip.count = zext nneg i32 %2 to i64
  br label %11

11:                                               ; preds = %.lr.ph, %consume_one.exit
  %indvars.iv = phi i64 [ 0, %.lr.ph ], [ %indvars.iv.next, %consume_one.exit ]
  %.068 = phi i32 [ 0, %.lr.ph ], [ %.1, %consume_one.exit ]
  %.not43 = icmp eq i32 %.068, 0
  br i1 %.not43, label %12, label %.loopexit

12:                                               ; preds = %11
  %13 = getelementptr inbounds nuw %struct.s_mmbuffer, ptr %1, i64 %indvars.iv
  %14 = load ptr, ptr %13, align 8, !tbaa !32
  %15 = getelementptr inbounds nuw i8, ptr %13, i64 8
  %16 = load i64, ptr %15, align 8, !tbaa !34
  %17 = getelementptr i8, ptr %14, i64 %16
  %18 = getelementptr i8, ptr %17, i64 -1
  %19 = load i8, ptr %18, align 1, !tbaa !20
  %.not44 = icmp eq i8 %19, 10
  br i1 %.not44, label %21, label %20

20:                                               ; preds = %12
  tail call void @strbuf_add(ptr noundef nonnull %7, ptr noundef nonnull %14, i64 noundef %16) #13
  br label %consume_one.exit

21:                                               ; preds = %12
  %22 = load i64, ptr %8, align 8, !tbaa !31
  %.not45 = icmp eq i64 %22, 0
  br i1 %.not45, label %.preheader71, label %35

.preheader71:                                     ; preds = %21, %23
  %.022.i = phi i64 [ %33, %23 ], [ %16, %21 ]
  %.020.i = phi ptr [ %34, %23 ], [ %14, %21 ]
  %.not.i = icmp eq i64 %.022.i, 0
  br i1 %.not.i, label %consume_one.exit, label %23

23:                                               ; preds = %.preheader71
  %24 = tail call ptr @memchr(ptr noundef %.020.i, i32 noundef 10, i64 noundef %.022.i) #15
  %25 = icmp eq ptr %24, null
  %26 = ptrtoint ptr %24 to i64
  %27 = ptrtoint ptr %.020.i to i64
  %reass.sub69 = sub i64 %26, %27
  %28 = add i64 %reass.sub69, 1
  %29 = select i1 %25, i64 %.022.i, i64 %28
  %30 = load ptr, ptr %4, align 8, !tbaa !25
  %31 = load ptr, ptr %10, align 8, !tbaa !26
  %32 = tail call i32 %30(ptr noundef %31, ptr noundef %.020.i, i64 noundef %29) #13
  %.not26.i = icmp eq i32 %32, 0
  %33 = sub i64 %.022.i, %29
  %34 = getelementptr inbounds nuw i8, ptr %.020.i, i64 %29
  br i1 %.not26.i, label %.preheader71, label %consume_one.exit, !llvm.loop !35

35:                                               ; preds = %21
  tail call void @strbuf_add(ptr noundef nonnull %7, ptr noundef nonnull %14, i64 noundef %16) #13
  %36 = load ptr, ptr %9, align 8, !tbaa !36
  %37 = load i64, ptr %8, align 8, !tbaa !31
  br label %38

38:                                               ; preds = %39, %35
  %.022.i46 = phi i64 [ %37, %35 ], [ %49, %39 ]
  %.020.i47 = phi ptr [ %36, %35 ], [ %50, %39 ]
  %.not.i48 = icmp eq i64 %.022.i46, 0
  br i1 %.not.i48, label %consume_one.exit52, label %39

39:                                               ; preds = %38
  %40 = tail call ptr @memchr(ptr noundef %.020.i47, i32 noundef 10, i64 noundef %.022.i46) #15
  %41 = icmp eq ptr %40, null
  %42 = ptrtoint ptr %40 to i64
  %43 = ptrtoint ptr %.020.i47 to i64
  %reass.sub = sub i64 %42, %43
  %44 = add i64 %reass.sub, 1
  %45 = select i1 %41, i64 %.022.i46, i64 %44
  %46 = load ptr, ptr %4, align 8, !tbaa !25
  %47 = load ptr, ptr %10, align 8, !tbaa !26
  %48 = tail call i32 %46(ptr noundef %47, ptr noundef %.020.i47, i64 noundef %45) #13
  %.not26.i50 = icmp eq i32 %48, 0
  %49 = sub i64 %.022.i46, %45
  %50 = getelementptr inbounds nuw i8, ptr %.020.i47, i64 %45
  br i1 %.not26.i50, label %38, label %consume_one.exit52, !llvm.loop !35

consume_one.exit52:                               ; preds = %38, %39
  %.2.i51 = phi i32 [ %48, %39 ], [ 0, %38 ]
  store i64 0, ptr %8, align 8, !tbaa !37
  %51 = load ptr, ptr %9, align 8, !tbaa !38
  %.not9.i = icmp eq ptr %51, @strbuf_slopbuf
  br i1 %.not9.i, label %consume_one.exit, label %52

52:                                               ; preds = %consume_one.exit52
  store i8 0, ptr %51, align 1, !tbaa !20
  br label %consume_one.exit

consume_one.exit:                                 ; preds = %23, %.preheader71, %52, %consume_one.exit52, %20
  %.1 = phi i32 [ 0, %20 ], [ %.2.i51, %consume_one.exit52 ], [ %.2.i51, %52 ], [ 0, %.preheader71 ], [ %32, %23 ]
  %indvars.iv.next = add nuw nsw i64 %indvars.iv, 1
  %exitcond.not = icmp eq i64 %indvars.iv.next, %wide.trip.count
  br i1 %exitcond.not, label %._crit_edge, label %11, !llvm.loop !39

._crit_edge:                                      ; preds = %consume_one.exit
  %53 = icmp eq i32 %.1, 0
  br i1 %53, label %._crit_edge.thread, label %.loopexit

._crit_edge.thread:                               ; preds = %.preheader, %._crit_edge
  %54 = getelementptr inbounds nuw i8, ptr %0, i64 32
  %55 = load i64, ptr %54, align 8, !tbaa !31
  %.not41 = icmp eq i64 %55, 0
  br i1 %.not41, label %.thread, label %56

56:                                               ; preds = %._crit_edge.thread
  %57 = getelementptr inbounds nuw i8, ptr %0, i64 40
  %58 = load ptr, ptr %57, align 8, !tbaa !36
  %59 = getelementptr inbounds nuw i8, ptr %0, i64 16
  br label %60

60:                                               ; preds = %61, %56
  %.022.i53 = phi i64 [ %55, %56 ], [ %71, %61 ]
  %.020.i54 = phi ptr [ %58, %56 ], [ %72, %61 ]
  %.not.i55 = icmp eq i64 %.022.i53, 0
  br i1 %.not.i55, label %consume_one.exit59, label %61

61:                                               ; preds = %60
  %62 = tail call ptr @memchr(ptr noundef %.020.i54, i32 noundef 10, i64 noundef %.022.i53) #15
  %63 = icmp eq ptr %62, null
  %64 = ptrtoint ptr %62 to i64
  %65 = ptrtoint ptr %.020.i54 to i64
  %reass.sub70 = sub i64 %64, %65
  %66 = add i64 %reass.sub70, 1
  %67 = select i1 %63, i64 %.022.i53, i64 %66
  %68 = load ptr, ptr %4, align 8, !tbaa !25
  %69 = load ptr, ptr %59, align 8, !tbaa !26
  %70 = tail call i32 %68(ptr noundef %69, ptr noundef %.020.i54, i64 noundef %67) #13
  %.not26.i57 = icmp eq i32 %70, 0
  %71 = sub i64 %.022.i53, %67
  %72 = getelementptr inbounds nuw i8, ptr %.020.i54, i64 %67
  br i1 %.not26.i57, label %60, label %consume_one.exit59, !llvm.loop !35

consume_one.exit59:                               ; preds = %60, %61
  store i64 0, ptr %54, align 8, !tbaa !37
  %73 = load ptr, ptr %57, align 8, !tbaa !38
  %.not9.i60 = icmp eq ptr %73, @strbuf_slopbuf
  br i1 %.not9.i60, label %75, label %74

74:                                               ; preds = %consume_one.exit59
  store i8 0, ptr %73, align 1, !tbaa !20
  br label %75

75:                                               ; preds = %74, %consume_one.exit59
  br i1 %.not.i55, label %.thread, label %.loopexit

.thread:                                          ; preds = %._crit_edge.thread, %75
  br label %.loopexit

.loopexit:                                        ; preds = %11, %.thread, %75, %._crit_edge, %3
  %.038 = phi i32 [ 0, %3 ], [ -1, %._crit_edge ], [ 0, %.thread ], [ -1, %75 ], [ 1, %11 ]
  ret i32 %.038
}